#include <math.h>
#include <stdio.h>
#include <stdlib.h>
#include <string.h>
#include <iostream>
using namespace std;

//****************************
//*?????? 1300012809  **
//*???2013-12-4          **
//*????????         **
//****************************
int m = 0, k, i, j, n;                //????
int f(int x), panduan = 0;            //????????
int main()
{
	cin >> n >> k;                    //??????????????
	j = k;
	while (m == 0)                    //?while??????????????
	{
		j = j + n;                    //???????m?????n
		m = f(n);
		if (panduan != 0)             //panduan???
			m = 0;
		panduan = 0;
	}
	cout << m << endl;                //?????m
	return 0;
}
int f(int x)                          //????
{
	int y;
	if (x == 1)                       //n == 1???????????????
		return j;
	else
	{
		y = f(x - 1);
		if (y % (n - 1) != 0)         //?????????????????????
		{
			panduan = 1;
			return 0;
		}
		else
		{
			return y * n / (n - 1) + k;	 //???	
		}
	}
	
	
}